ccopy_reg
_reconstructor
p0
(cxee.entities
Token
p1
c__builtin__
tuple
p2
(V3241c335c479d12ea9e8af81ee7edfbcaaf5d3770ecfef67773736126a944b6b
p3
V34e1212573cc1cd4784011a3fba2a42fa4ecc80b5c9c714f3f623a652ffde6b0
p4
I172800
I1473763757
tp5
tp6
Rp7
ccollections
OrderedDict
p8
((lp9
(lp10
S'access_token'
p11
ag3
aa(lp12
S'refresh_token'
p13
ag4
aa(lp14
S'expires_in'
p15
aI172800
aa(lp16
S'expires_at'
p17
aI1473763757
aatp18
Rp19
b.